; Function Attrs: mustprogress nounwind uwtable
define internal void @"_ZN9grpc_core14promise_detail15PromiseActivityINS_4LoopIZNS_13ClientChannel14StartIdleTimerEvE3$_0EENS_22ExecCtxWakeupSchedulerEZNS3_14StartIdleTimerEvE3$_1JNS_13RefCountedPtrINS_5ArenaEEEEE4DropEt"(ptr noundef nonnull align 8 dereferenceable(144) %0, i16 zeroext %1) unnamed_addr #9 align 2 {
  %3 = getelementptr inbounds nuw i8, ptr %0, i64 24
  %4 = atomicrmw sub ptr %3, i32 1 acq_rel, align 4
  %.not.i.i = icmp eq i32 %4, 1
  br i1 %.not.i.i, label %5, label %_ZN9grpc_core14promise_detail20FreestandingActivity14WakeupCompleteEv.exit

5:                                                ; preds = %2
  %6 = load ptr, ptr %0, align 8, !tbaa !8
  %7 = getelementptr inbounds nuw i8, ptr %6, i64 16
  %8 = load ptr, ptr %7, align 8
  tail call void %8(ptr noundef nonnull align 8 dereferenceable(40) %0) #42
  br label %_ZN9grpc_core14promise_detail20FreestandingActivity14WakeupCompleteEv.exit

_ZN9grpc_core14promise_detail20FreestandingActivity14WakeupCompleteEv.exit: ; preds = %2, %5
  ret void
}